; Function Attrs: nounwind uwtable
define zeroext range(i8 0, 2) i8 @l_Lean_Omega_Constraint_sat(ptr noundef readonly captures(none) %0, ptr noundef %1) local_unnamed_addr #1 {
  %3 = getelementptr inbounds nuw i8, ptr %0, i64 8
  %4 = load ptr, ptr %3, align 8, !tbaa !11
  %5 = ptrtoint ptr %4 to i64
  %6 = and i64 %5, 1
  %.not.i = icmp eq i64 %6, 0
  br i1 %.not.i, label %10, label %7

7:                                                ; preds = %2
  %8 = lshr i64 %5, 1
  %9 = trunc i64 %8 to i32
  br label %lean_obj_tag.exit

10:                                               ; preds = %2
  %11 = getelementptr i8, ptr %4, i64 4
  %.val.i = load i32, ptr %11, align 4
  %12 = lshr i32 %.val.i, 24
  br label %lean_obj_tag.exit

lean_obj_tag.exit:                                ; preds = %7, %10
  %.0.i = phi i32 [ %9, %7 ], [ %12, %10 ]
  %13 = icmp eq i32 %.0.i, 0
  br i1 %13, label %14, label %41

14:                                               ; preds = %lean_obj_tag.exit
  %15 = getelementptr inbounds nuw i8, ptr %0, i64 16
  %16 = load ptr, ptr %15, align 8, !tbaa !11
  %17 = ptrtoint ptr %16 to i64
  %18 = and i64 %17, 1
  %.not.i21 = icmp eq i64 %18, 0
  br i1 %.not.i21, label %22, label %19

19:                                               ; preds = %14
  %20 = lshr i64 %17, 1
  %21 = trunc i64 %20 to i32
  br label %lean_obj_tag.exit24

22:                                               ; preds = %14
  %23 = getelementptr i8, ptr %16, i64 4
  %.val.i23 = load i32, ptr %23, align 4
  %24 = lshr i32 %.val.i23, 24
  br label %lean_obj_tag.exit24

lean_obj_tag.exit24:                              ; preds = %19, %22
  %.0.i22 = phi i32 [ %21, %19 ], [ %24, %22 ]
  %25 = icmp eq i32 %.0.i22, 0
  br i1 %25, label %lean_int_dec_le.exit, label %26

26:                                               ; preds = %lean_obj_tag.exit24
  %27 = getelementptr inbounds nuw i8, ptr %16, i64 8
  %28 = load ptr, ptr %27, align 8, !tbaa !11
  %29 = ptrtoint ptr %1 to i64
  %30 = and i64 %29, 1
  %.not.i.i = icmp eq i64 %30, 0
  br i1 %.not.i.i, label %.critedge.i.i, label %31, !prof !4

31:                                               ; preds = %26
  %32 = ptrtoint ptr %28 to i64
  %33 = and i64 %32, 1
  %.not7.i.i = icmp eq i64 %33, 0
  br i1 %.not7.i.i, label %.critedge.i.i, label %34, !prof !4

34:                                               ; preds = %31
  %35 = lshr i64 %29, 1
  %36 = trunc i64 %35 to i32
  %37 = lshr i64 %32, 1
  %38 = trunc i64 %37 to i32
  %39 = icmp sle i32 %36, %38
  br label %lean_int_dec_le.exit

.critedge.i.i:                                    ; preds = %31, %26
  %40 = tail call zeroext i1 @lean_int_big_le(ptr noundef %1, ptr noundef %28) #4
  br label %lean_int_dec_le.exit

41:                                               ; preds = %lean_obj_tag.exit
  %42 = getelementptr inbounds nuw i8, ptr %4, i64 8
  %43 = load ptr, ptr %42, align 8, !tbaa !11
  %44 = ptrtoint ptr %43 to i64
  %45 = and i64 %44, 1
  %.not.i.i25 = icmp eq i64 %45, 0
  br i1 %.not.i.i25, label %lean_int_dec_le.exit29, label %46, !prof !4

46:                                               ; preds = %41
  %47 = ptrtoint ptr %1 to i64
  %48 = and i64 %47, 1
  %.not7.i.i26 = icmp eq i64 %48, 0
  br i1 %.not7.i.i26, label %lean_int_dec_le.exit29, label %49, !prof !4

49:                                               ; preds = %46
  %50 = lshr i64 %44, 1
  %51 = trunc i64 %50 to i32
  %52 = lshr i64 %47, 1
  %53 = trunc i64 %52 to i32
  %.not = icmp sgt i32 %51, %53
  br i1 %.not, label %lean_int_dec_le.exit, label %55

lean_int_dec_le.exit29:                           ; preds = %41, %46
  %54 = tail call zeroext i1 @lean_int_big_le(ptr noundef %43, ptr noundef %1) #4
  br i1 %54, label %55, label %lean_int_dec_le.exit

55:                                               ; preds = %49, %lean_int_dec_le.exit29
  %56 = getelementptr inbounds nuw i8, ptr %0, i64 16
  %57 = load ptr, ptr %56, align 8, !tbaa !11
  %58 = ptrtoint ptr %57 to i64
  %59 = and i64 %58, 1
  %.not.i30 = icmp eq i64 %59, 0
  br i1 %.not.i30, label %63, label %60

60:                                               ; preds = %55
  %61 = lshr i64 %58, 1
  %62 = trunc i64 %61 to i32
  br label %lean_obj_tag.exit33

63:                                               ; preds = %55
  %64 = getelementptr i8, ptr %57, i64 4
  %.val.i32 = load i32, ptr %64, align 4
  %65 = lshr i32 %.val.i32, 24
  br label %lean_obj_tag.exit33

lean_obj_tag.exit33:                              ; preds = %60, %63
  %.0.i31 = phi i32 [ %62, %60 ], [ %65, %63 ]
  %66 = icmp eq i32 %.0.i31, 0
  br i1 %66, label %lean_int_dec_le.exit, label %67

67:                                               ; preds = %lean_obj_tag.exit33
  %68 = getelementptr inbounds nuw i8, ptr %57, i64 8
  %69 = load ptr, ptr %68, align 8, !tbaa !11
  %70 = ptrtoint ptr %1 to i64
  %71 = and i64 %70, 1
  %.not.i.i34 = icmp eq i64 %71, 0
  br i1 %.not.i.i34, label %.critedge.i.i37, label %72, !prof !4

72:                                               ; preds = %67
  %73 = ptrtoint ptr %69 to i64
  %74 = and i64 %73, 1
  %.not7.i.i35 = icmp eq i64 %74, 0
  br i1 %.not7.i.i35, label %.critedge.i.i37, label %75, !prof !4

75:                                               ; preds = %72
  %76 = lshr i64 %70, 1
  %77 = trunc i64 %76 to i32
  %78 = lshr i64 %73, 1
  %79 = trunc i64 %78 to i32
  %80 = icmp sle i32 %77, %79
  br label %lean_int_dec_le.exit

.critedge.i.i37:                                  ; preds = %72, %67
  %81 = tail call zeroext i1 @lean_int_big_le(ptr noundef %1, ptr noundef %69) #4
  br label %lean_int_dec_le.exit

lean_int_dec_le.exit:                             ; preds = %49, %.critedge.i.i37, %75, %.critedge.i.i, %34, %lean_int_dec_le.exit29, %lean_obj_tag.exit33, %lean_obj_tag.exit24
  %.1.shrunk = phi i1 [ true, %lean_obj_tag.exit24 ], [ false, %lean_int_dec_le.exit29 ], [ true, %lean_obj_tag.exit33 ], [ %39, %34 ], [ %40, %.critedge.i.i ], [ %80, %75 ], [ %81, %.critedge.i.i37 ], [ false, %49 ]
  %.1 = zext i1 %.1.shrunk to i8
  ret i8 %.1
}